target datalayout = "e-m:e-p270:32:32-p271:32:32-p272:64:64-i64:64-i128:128-f80:128-n8:16:32:64-S128"
target triple = "x86_64-pc-linux-gnu"

%struct._zend_refcounted = type { %struct._zend_refcounted_h }
%struct._zend_refcounted_h = type { i32, %union.anon }
%union.anon = type { i32 }
%struct._zval_struct = type { %union._zend_value, %union.anon.0, %union.anon.3 }
%union._zend_value = type { i64 }
%union.anon.0 = type { i32 }
%union.anon.3 = type { i32 }
%struct.anon.1 = type { i8, i8, %union.anon.2 }
%union.anon.2 = type { i16 }
%struct._zend_reference = type { %struct._zend_refcounted_h, %struct._zval_struct, %union.zend_property_info_source_list }
%union.zend_property_info_source_list = type { ptr }

; Function Attrs: nounwind uwtable
define void @zval_add_ref(ptr noundef %0) #0 {
  %2 = alloca ptr, align 8
  %3 = alloca ptr, align 8
  %4 = alloca ptr, align 8
  %5 = alloca ptr, align 8
  %6 = alloca ptr, align 8
  %7 = alloca ptr, align 8
  %8 = alloca ptr, align 8
  %9 = alloca ptr, align 8
  %10 = alloca ptr, align 8
  %11 = alloca ptr, align 8
  %12 = alloca i32, align 4
  store ptr %0, ptr %8, align 8
  %13 = load ptr, ptr %8, align 8
  %14 = getelementptr inbounds %struct._zval_struct, ptr %13, i32 0, i32 1
  %15 = getelementptr inbounds %struct.anon.1, ptr %14, i32 0, i32 1
  %16 = load i8, ptr %15, align 1
  %17 = zext i8 %16 to i32
  %18 = icmp ne i32 %17, 0
  br i1 %18, label %19, label %79

19:                                               ; preds = %1
  %20 = load ptr, ptr %8, align 8
  store ptr %20, ptr %7, align 8
  %21 = load ptr, ptr %7, align 8
  %22 = getelementptr inbounds %struct._zval_struct, ptr %21, i32 0, i32 1
  %23 = load i8, ptr %22, align 8
  %24 = zext i8 %23 to i32
  %25 = icmp eq i32 %24, 10
  br i1 %25, label %26, label %65

26:                                               ; preds = %19
  %27 = load ptr, ptr %8, align 8
  store ptr %27, ptr %6, align 8
  %28 = load ptr, ptr %6, align 8
  %29 = load ptr, ptr %28, align 8
  store ptr %29, ptr %2, align 8
  %30 = load ptr, ptr %2, align 8
  %31 = load i32, ptr %30, align 4
  %32 = icmp eq i32 %31, 1
  br i1 %32, label %33, label %65

33:                                               ; preds = %26
  br label %34

34:                                               ; preds = %33
  %35 = load ptr, ptr %8, align 8
  store ptr %35, ptr %9, align 8
  %36 = load ptr, ptr %8, align 8
  %37 = getelementptr inbounds %struct._zval_struct, ptr %36, i32 0, i32 0
  %38 = load ptr, ptr %37, align 8
  %39 = getelementptr inbounds %struct._zend_reference, ptr %38, i32 0, i32 1
  store ptr %39, ptr %10, align 8
  %40 = load ptr, ptr %10, align 8
  %41 = getelementptr inbounds %struct._zval_struct, ptr %40, i32 0, i32 0
  %42 = load ptr, ptr %41, align 8
  store ptr %42, ptr %11, align 8
  %43 = load ptr, ptr %10, align 8
  %44 = getelementptr inbounds %struct._zval_struct, ptr %43, i32 0, i32 1
  %45 = load i32, ptr %44, align 8
  store i32 %45, ptr %12, align 4
  br label %46

46:                                               ; preds = %34
  %47 = load ptr, ptr %11, align 8
  %48 = load ptr, ptr %9, align 8
  %49 = getelementptr inbounds %struct._zval_struct, ptr %48, i32 0, i32 0
  store ptr %47, ptr %49, align 8
  %50 = load i32, ptr %12, align 4
  %51 = load ptr, ptr %9, align 8
  %52 = getelementptr inbounds %struct._zval_struct, ptr %51, i32 0, i32 1
  store i32 %50, ptr %52, align 8
  br label %53

53:                                               ; preds = %46
  %54 = load i32, ptr %12, align 4
  %55 = and i32 %54, 65280
  %56 = icmp ne i32 %55, 0
  br i1 %56, label %57, label %63

57:                                               ; preds = %53
  %58 = load ptr, ptr %11, align 8
  %59 = getelementptr inbounds %struct._zend_refcounted, ptr %58, i32 0, i32 0
  store ptr %59, ptr %5, align 8
  %60 = load ptr, ptr %5, align 8
  %61 = load i32, ptr %60, align 4
  %62 = add i32 %61, 1
  store i32 %62, ptr %60, align 4
  br label %63

63:                                               ; preds = %57, %53
  br label %64

64:                                               ; preds = %63
  br label %78

65:                                               ; preds = %26, %19
  %66 = load ptr, ptr %8, align 8
  store ptr %66, ptr %4, align 8
  %67 = load ptr, ptr %4, align 8
  %68 = getelementptr inbounds %struct._zval_struct, ptr %67, i32 0, i32 1
  %69 = getelementptr inbounds %struct.anon.1, ptr %68, i32 0, i32 1
  %70 = load i8, ptr %69, align 1
  %71 = zext i8 %70 to i32
  %72 = icmp ne i32 %71, 0
  call void @llvm.assume(i1 %72)
  %73 = load ptr, ptr %4, align 8
  %74 = load ptr, ptr %73, align 8
  store ptr %74, ptr %3, align 8
  %75 = load ptr, ptr %3, align 8
  %76 = load i32, ptr %75, align 4
  %77 = add i32 %76, 1
  store i32 %77, ptr %75, align 4
  br label %78

78:                                               ; preds = %65, %64
  br label %79

79:                                               ; preds = %78, %1
  ret void
}