; Function Attrs: mustprogress nofree norecurse nosync nounwind willreturn memory(readwrite, inaccessiblemem: none) uwtable
define void @zval_add_ref(ptr nocapture noundef %0) local_unnamed_addr #3 {
  %2 = getelementptr inbounds i8, ptr %0, i64 8
  %3 = getelementptr inbounds i8, ptr %0, i64 9
  %4 = load i8, ptr %3, align 1
  %.not = icmp eq i8 %4, 0
  br i1 %.not, label %18, label %5

5:                                                ; preds = %1
  %6 = load i8, ptr %2, align 8
  %7 = icmp eq i8 %6, 10
  %.pre = load ptr, ptr %0, align 8
  %.pre21 = load i32, ptr %.pre, align 4
  %8 = icmp eq i32 %.pre21, 1
  %or.cond = select i1 %7, i1 %8, i1 false
  br i1 %or.cond, label %9, label %.sink.split

9:                                                ; preds = %5
  %10 = getelementptr inbounds i8, ptr %.pre, i64 8
  %11 = load ptr, ptr %10, align 8
  %12 = getelementptr inbounds i8, ptr %.pre, i64 16
  %13 = load i32, ptr %12, align 8
  store ptr %11, ptr %0, align 8
  store i32 %13, ptr %2, align 8
  %14 = and i32 %13, 65280
  %.not20 = icmp eq i32 %14, 0
  br i1 %.not20, label %18, label %15

15:                                               ; preds = %9
  %16 = load i32, ptr %11, align 4
  br label %.sink.split

.sink.split:                                      ; preds = %5, %15
  %.pre21.sink = phi i32 [ %16, %15 ], [ %.pre21, %5 ]
  %.pre.sink = phi ptr [ %11, %15 ], [ %.pre, %5 ]
  %17 = add i32 %.pre21.sink, 1
  store i32 %17, ptr %.pre.sink, align 4
  br label %18

18:                                               ; preds = %.sink.split, %9, %1
  ret void
}